; ModuleID = '46/622.c'
source_filename = "46/622.c"
target datalayout = "e-m:e-p270:32:32-p271:32:32-p272:64:64-i64:64-f80:128-n8:16:32:64-S128"
target triple = "x86_64-pc-linux-gnu"

@.str = private unnamed_addr constant [5 x i8] c"%d%d\00", align 1
@.str.1 = private unnamed_addr constant [3 x i8] c"%d\00", align 1
@.str.2 = private unnamed_addr constant [4 x i8] c"%d\0A\00", align 1

; Function Attrs: noinline nounwind uwtable
define dso_local void @main() #0 {
  %1 = alloca i32, align 4
  %2 = alloca i32, align 4
  %3 = alloca i32, align 4
  %4 = alloca [100 x [100 x i32]], align 16
  %5 = alloca i32, align 4
  %6 = alloca i32, align 4
  %7 = call i32 (i8*, ...) @__isoc99_scanf(i8* getelementptr inbounds ([5 x i8], [5 x i8]* @.str, i64 0, i64 0), i32* %5, i32* %6)
  store i32 0, i32* %1, align 4
  br label %8

8:                                                ; preds = %29, %0
  %9 = load i32, i32* %1, align 4
  %10 = load i32, i32* %5, align 4
  %11 = icmp slt i32 %9, %10
  br i1 %11, label %12, label %32

12:                                               ; preds = %8
  store i32 0, i32* %2, align 4
  br label %13

13:                                               ; preds = %25, %12
  %14 = load i32, i32* %2, align 4
  %15 = load i32, i32* %6, align 4
  %16 = icmp slt i32 %14, %15
  br i1 %16, label %17, label %28

17:                                               ; preds = %13
  %18 = load i32, i32* %1, align 4
  %19 = sext i32 %18 to i64
  %20 = getelementptr inbounds [100 x [100 x i32]], [100 x [100 x i32]]* %4, i64 0, i64 %19
  %21 = load i32, i32* %2, align 4
  %22 = sext i32 %21 to i64
  %23 = getelementptr inbounds [100 x i32], [100 x i32]* %20, i64 0, i64 %22
  %24 = call i32 (i8*, ...) @__isoc99_scanf(i8* getelementptr inbounds ([3 x i8], [3 x i8]* @.str.1, i64 0, i64 0), i32* %23)
  br label %25

25:                                               ; preds = %17
  %26 = load i32, i32* %2, align 4
  %27 = add nsw i32 %26, 1
  store i32 %27, i32* %2, align 4
  br label %13

28:                                               ; preds = %13
  br label %29

29:                                               ; preds = %28
  %30 = load i32, i32* %1, align 4
  %31 = add nsw i32 %30, 1
  store i32 %31, i32* %1, align 4
  br label %8

32:                                               ; preds = %8
  store i32 0, i32* %1, align 4
  store i32 0, i32* %2, align 4
  br label %33

33:                                               ; preds = %154, %32
  %34 = load i32, i32* %1, align 4
  %35 = load i32, i32* %5, align 4
  %36 = sdiv i32 %35, 2
  %37 = load i32, i32* %5, align 4
  %38 = srem i32 %37, 2
  %39 = add nsw i32 %36, %38
  %40 = icmp slt i32 %34, %39
  br i1 %40, label %41, label %49

41:                                               ; preds = %33
  %42 = load i32, i32* %2, align 4
  %43 = load i32, i32* %6, align 4
  %44 = sdiv i32 %43, 2
  %45 = load i32, i32* %6, align 4
  %46 = srem i32 %45, 2
  %47 = add nsw i32 %44, %46
  %48 = icmp slt i32 %42, %47
  br label %49

49:                                               ; preds = %41, %33
  %50 = phi i1 [ false, %33 ], [ %48, %41 ]
  br i1 %50, label %51, label %159

51:                                               ; preds = %49
  %52 = load i32, i32* %2, align 4
  store i32 %52, i32* %3, align 4
  br label %53

53:                                               ; preds = %68, %51
  %54 = load i32, i32* %3, align 4
  %55 = load i32, i32* %6, align 4
  %56 = load i32, i32* %2, align 4
  %57 = sub nsw i32 %55, %56
  %58 = icmp slt i32 %54, %57
  br i1 %58, label %59, label %71

59:                                               ; preds = %53
  %60 = load i32, i32* %1, align 4
  %61 = sext i32 %60 to i64
  %62 = getelementptr inbounds [100 x [100 x i32]], [100 x [100 x i32]]* %4, i64 0, i64 %61
  %63 = load i32, i32* %3, align 4
  %64 = sext i32 %63 to i64
  %65 = getelementptr inbounds [100 x i32], [100 x i32]* %62, i64 0, i64 %64
  %66 = load i32, i32* %65, align 4
  %67 = call i32 (i8*, ...) @printf(i8* getelementptr inbounds ([4 x i8], [4 x i8]* @.str.2, i64 0, i64 0), i32 %66)
  br label %68

68:                                               ; preds = %59
  %69 = load i32, i32* %3, align 4
  %70 = add nsw i32 %69, 1
  store i32 %70, i32* %3, align 4
  br label %53

71:                                               ; preds = %53
  %72 = load i32, i32* %1, align 4
  %73 = add nsw i32 %72, 1
  store i32 %73, i32* %3, align 4
  br label %74

74:                                               ; preds = %92, %71
  %75 = load i32, i32* %3, align 4
  %76 = load i32, i32* %5, align 4
  %77 = load i32, i32* %1, align 4
  %78 = sub nsw i32 %76, %77
  %79 = icmp slt i32 %75, %78
  br i1 %79, label %80, label %95

80:                                               ; preds = %74
  %81 = load i32, i32* %3, align 4
  %82 = sext i32 %81 to i64
  %83 = getelementptr inbounds [100 x [100 x i32]], [100 x [100 x i32]]* %4, i64 0, i64 %82
  %84 = load i32, i32* %6, align 4
  %85 = load i32, i32* %2, align 4
  %86 = sub nsw i32 %84, %85
  %87 = sub nsw i32 %86, 1
  %88 = sext i32 %87 to i64
  %89 = getelementptr inbounds [100 x i32], [100 x i32]* %83, i64 0, i64 %88
  %90 = load i32, i32* %89, align 4
  %91 = call i32 (i8*, ...) @printf(i8* getelementptr inbounds ([4 x i8], [4 x i8]* @.str.2, i64 0, i64 0), i32 %90)
  br label %92

92:                                               ; preds = %80
  %93 = load i32, i32* %3, align 4
  %94 = add nsw i32 %93, 1
  store i32 %94, i32* %3, align 4
  br label %74

95:                                               ; preds = %74
  %96 = load i32, i32* %1, align 4
  %97 = load i32, i32* %5, align 4
  %98 = sdiv i32 %97, 2
  %99 = icmp slt i32 %96, %98
  br i1 %99, label %100, label %125

100:                                              ; preds = %95
  %101 = load i32, i32* %6, align 4
  %102 = load i32, i32* %2, align 4
  %103 = sub nsw i32 %101, %102
  %104 = sub nsw i32 %103, 2
  store i32 %104, i32* %3, align 4
  br label %105

105:                                              ; preds = %121, %100
  %106 = load i32, i32* %3, align 4
  %107 = load i32, i32* %2, align 4
  %108 = icmp sge i32 %106, %107
  br i1 %108, label %109, label %124

109:                                              ; preds = %105
  %110 = load i32, i32* %5, align 4
  %111 = load i32, i32* %1, align 4
  %112 = sub nsw i32 %110, %111
  %113 = sub nsw i32 %112, 1
  %114 = sext i32 %113 to i64
  %115 = getelementptr inbounds [100 x [100 x i32]], [100 x [100 x i32]]* %4, i64 0, i64 %114
  %116 = load i32, i32* %3, align 4
  %117 = sext i32 %116 to i64
  %118 = getelementptr inbounds [100 x i32], [100 x i32]* %115, i64 0, i64 %117
  %119 = load i32, i32* %118, align 4
  %120 = call i32 (i8*, ...) @printf(i8* getelementptr inbounds ([4 x i8], [4 x i8]* @.str.2, i64 0, i64 0), i32 %119)
  br label %121

121:                                              ; preds = %109
  %122 = load i32, i32* %3, align 4
  %123 = add nsw i32 %122, -1
  store i32 %123, i32* %3, align 4
  br label %105

124:                                              ; preds = %105
  br label %125

125:                                              ; preds = %124, %95
  %126 = load i32, i32* %2, align 4
  %127 = load i32, i32* %6, align 4
  %128 = sdiv i32 %127, 2
  %129 = icmp slt i32 %126, %128
  br i1 %129, label %130, label %153

130:                                              ; preds = %125
  %131 = load i32, i32* %5, align 4
  %132 = load i32, i32* %1, align 4
  %133 = sub nsw i32 %131, %132
  %134 = sub nsw i32 %133, 2
  store i32 %134, i32* %3, align 4
  br label %135

135:                                              ; preds = %149, %130
  %136 = load i32, i32* %3, align 4
  %137 = load i32, i32* %1, align 4
  %138 = add nsw i32 %137, 1
  %139 = icmp sge i32 %136, %138
  br i1 %139, label %140, label %152

140:                                              ; preds = %135
  %141 = load i32, i32* %3, align 4
  %142 = sext i32 %141 to i64
  %143 = getelementptr inbounds [100 x [100 x i32]], [100 x [100 x i32]]* %4, i64 0, i64 %142
  %144 = load i32, i32* %2, align 4
  %145 = sext i32 %144 to i64
  %146 = getelementptr inbounds [100 x i32], [100 x i32]* %143, i64 0, i64 %145
  %147 = load i32, i32* %146, align 4
  %148 = call i32 (i8*, ...) @printf(i8* getelementptr inbounds ([4 x i8], [4 x i8]* @.str.2, i64 0, i64 0), i32 %147)
  br label %149

149:                                              ; preds = %140
  %150 = load i32, i32* %3, align 4
  %151 = add nsw i32 %150, -1
  store i32 %151, i32* %3, align 4
  br label %135

152:                                              ; preds = %135
  br label %153

153:                                              ; preds = %152, %125
  br label %154

154:                                              ; preds = %153
  %155 = load i32, i32* %1, align 4
  %156 = add nsw i32 %155, 1
  store i32 %156, i32* %1, align 4
  %157 = load i32, i32* %2, align 4
  %158 = add nsw i32 %157, 1
  store i32 %158, i32* %2, align 4
  br label %33

159:                                              ; preds = %49
  ret void
}

declare dso_local i32 @__isoc99_scanf(i8*, ...) #1

declare dso_local i32 @printf(i8*, ...) #1


!llvm.module.flags = !{!0}
!llvm.ident = !{!1}

!0 = !{i32 1, !"wchar_size", i32 4}
!1 = !{!"clang version 10.0.0-4ubuntu1 "}
